target datalayout = "e-m:e-p270:32:32-p271:32:32-p272:64:64-i64:64-i128:128-f80:128-n8:16:32:64-S128"
target triple = "x86_64-pc-linux-gnu"

%"class.std::_Function_base" = type { %"union.std::_Any_data", ptr }
%"union.std::_Any_data" = type { %"union.std::_Nocopy_types" }
%"union.std::_Nocopy_types" = type { { i64, i64 } }
%"class.llvm::IRBuilderBase::InsertPoint" = type { ptr, %"class.llvm::ilist_iterator_w_bits" }
%"class.llvm::ilist_iterator_w_bits" = type <{ ptr, i8, i8, [6 x i8] }>
%"class.llvm::DebugLoc" = type { %"class.llvm::TypedTrackingMDRef" }
%"class.llvm::TypedTrackingMDRef" = type { %"class.llvm::TrackingMDRef" }
%"class.llvm::TrackingMDRef" = type { ptr }
%"struct.llvm::OpenMPIRBuilder::LocationDescription" = type { %"class.llvm::IRBuilderBase::InsertPoint", %"class.llvm::DebugLoc" }
%"class.std::function.298" = type { %"class.std::_Function_base", ptr }
%"class.llvm::function_ref.302" = type { ptr, i64 }
%class.anon.321 = type { ptr, ptr, ptr }

; Function Attrs: mustprogress nounwind uwtable
define linkonce_odr hidden noundef ptr @_ZNSt9_Any_data9_M_accessEv(ptr noundef nonnull align 8 dereferenceable(16) %0) #1 comdat align 2 {
  %2 = alloca ptr, align 8
  store ptr %0, ptr %2, align 8
  %3 = load ptr, ptr %2, align 8
  %4 = getelementptr inbounds [16 x i8], ptr %3, i64 0, i64 0
  ret ptr %4
}

; Function Attrs: mustprogress nounwind uwtable
define internal noundef nonnull align 8 dereferenceable(8) ptr @"_ZNSt9_Any_data9_M_accessIPZN4llvm15OpenMPIRBuilder13createSectionERKNS2_19LocationDescriptionENS1_12function_refIFvNS1_13IRBuilderBase11InsertPointES8_EEESt8functionIFvS8_EEE3$_0EERT_v"(ptr noundef nonnull align 8 dereferenceable(16) %0) #1 align 2 {
  %2 = alloca ptr, align 8
  store ptr %0, ptr %2, align 8
  %3 = load ptr, ptr %2, align 8
  %4 = call noundef ptr @_ZNSt9_Any_data9_M_accessEv(ptr noundef nonnull align 8 dereferenceable(16) %3) #2
  ret ptr %4
}

; Function Attrs: mustprogress nounwind uwtable
define internal void @"_ZNSt14_Function_base13_Base_managerIZN4llvm15OpenMPIRBuilder13createSectionERKNS2_19LocationDescriptionENS1_12function_refIFvNS1_13IRBuilderBase11InsertPointES8_EEESt8functionIFvS8_EEE3$_0E9_M_createIRSE_EEvRSt9_Any_dataOT_St17integral_constantIbLb0EE"(ptr noundef nonnull align 8 dereferenceable(16) %0, ptr noundef nonnull align 8 dereferenceable(24) %1) #1 align 2 {
  %3 = alloca ptr, align 8
  %4 = alloca ptr, align 8
  store ptr %0, ptr %3, align 8
  store ptr %1, ptr %4, align 8
  %5 = call noalias noundef nonnull ptr @_Znwm(i64 noundef 24) #19
  %6 = load ptr, ptr %4, align 8
  call void @llvm.memcpy.p0.p0.i64(ptr align 16 %5, ptr align 8 %6, i64 24, i1 false)
  %7 = load ptr, ptr %3, align 8
  %8 = call noundef nonnull align 8 dereferenceable(8) ptr @"_ZNSt9_Any_data9_M_accessIPZN4llvm15OpenMPIRBuilder13createSectionERKNS2_19LocationDescriptionENS1_12function_refIFvNS1_13IRBuilderBase11InsertPointES8_EEESt8functionIFvS8_EEE3$_0EERT_v"(ptr noundef nonnull align 8 dereferenceable(16) %7) #2
  store ptr %5, ptr %8, align 8
  ret void
}

; Function Attrs: mustprogress nounwind uwtable
define linkonce_odr hidden void @_ZNSt14_Function_baseD2Ev(ptr noundef nonnull align 8 dereferenceable(24) %0) unnamed_addr #1 comdat align 2 {
  %2 = alloca ptr, align 8
  store ptr %0, ptr %2, align 8
  %3 = load ptr, ptr %2, align 8
  %4 = getelementptr inbounds nuw %"class.std::_Function_base", ptr %3, i32 0, i32 1
  %5 = load ptr, ptr %4, align 8
  %6 = icmp ne ptr %5, null
  br i1 %6, label %7, label %13

7:                                                ; preds = %1
  %8 = getelementptr inbounds nuw %"class.std::_Function_base", ptr %3, i32 0, i32 1
  %9 = load ptr, ptr %8, align 8
  %10 = getelementptr inbounds nuw %"class.std::_Function_base", ptr %3, i32 0, i32 0
  %11 = getelementptr inbounds nuw %"class.std::_Function_base", ptr %3, i32 0, i32 0
  %12 = call noundef zeroext i1 %9(ptr noundef nonnull align 8 dereferenceable(16) %10, ptr noundef nonnull align 8 dereferenceable(16) %11, i32 noundef 3)
  br label %13

13:                                               ; preds = %7, %1
  ret void
}

; Function Attrs: mustprogress nounwind uwtable
define internal void @"_ZNSt14_Function_base13_Base_managerIZN4llvm15OpenMPIRBuilder13createSectionERKNS2_19LocationDescriptionENS1_12function_refIFvNS1_13IRBuilderBase11InsertPointES8_EEESt8functionIFvS8_EEE3$_0E15_M_init_functorIRSE_EEvRSt9_Any_dataOT_"(ptr noundef nonnull align 8 dereferenceable(16) %0, ptr noundef nonnull align 8 dereferenceable(24) %1) #1 align 2 {
  %3 = alloca ptr, align 8
  %4 = alloca ptr, align 8
  store ptr %0, ptr %3, align 8
  store ptr %1, ptr %4, align 8
  %5 = load ptr, ptr %3, align 8
  %6 = load ptr, ptr %4, align 8
  call void @"_ZNSt14_Function_base13_Base_managerIZN4llvm15OpenMPIRBuilder13createSectionERKNS2_19LocationDescriptionENS1_12function_refIFvNS1_13IRBuilderBase11InsertPointES8_EEESt8functionIFvS8_EEE3$_0E9_M_createIRSE_EEvRSt9_Any_dataOT_St17integral_constantIbLb0EE"(ptr noundef nonnull align 8 dereferenceable(16) %5, ptr noundef nonnull align 8 dereferenceable(24) %6)
  ret void
}

; Function Attrs: mustprogress nounwind uwtable
define internal noundef zeroext i1 @"_ZNSt14_Function_base13_Base_managerIZN4llvm15OpenMPIRBuilder13createSectionERKNS2_19LocationDescriptionENS1_12function_refIFvNS1_13IRBuilderBase11InsertPointES8_EEESt8functionIFvS8_EEE3$_0E21_M_not_empty_functionISE_EEbRKT_"(ptr noundef nonnull align 8 dereferenceable(24) %0) #1 align 2 {
  %2 = alloca ptr, align 8
  store ptr %0, ptr %2, align 8
  ret i1 true
}

; Function Attrs: mustprogress nounwind uwtable
define linkonce_odr hidden void @_ZNSt14_Function_baseC2Ev(ptr noundef nonnull align 8 dereferenceable(24) %0) unnamed_addr #1 comdat align 2 {
  %2 = alloca ptr, align 8
  store ptr %0, ptr %2, align 8
  %3 = load ptr, ptr %2, align 8
  %4 = getelementptr inbounds nuw %"class.std::_Function_base", ptr %3, i32 0, i32 0
  store ptr null, ptr %4, align 8
  %5 = getelementptr inbounds nuw %"class.std::_Function_base", ptr %3, i32 0, i32 1
  store ptr null, ptr %5, align 8
  ret void
}

; Function Attrs: mustprogress nounwind uwtable
define linkonce_odr hidden void @_ZNSt8functionIFvN4llvm13IRBuilderBase11InsertPointEEED2Ev(ptr noundef nonnull align 8 dereferenceable(32) %0) unnamed_addr #1 comdat align 2 {
  %2 = alloca ptr, align 8
  store ptr %0, ptr %2, align 8
  %3 = load ptr, ptr %2, align 8
  call void @_ZNSt14_Function_baseD2Ev(ptr noundef nonnull align 8 dereferenceable(24) %3) #2
  ret void
}

; Function Attrs: mustprogress nounwind uwtable
define internal void @"_ZNSt8functionIFvN4llvm13IRBuilderBase11InsertPointEEEC2IRZNS0_15OpenMPIRBuilder13createSectionERKNS6_19LocationDescriptionENS0_12function_refIFvS2_S2_EEES4_E3$_0vEEOT_"(ptr noundef nonnull align 8 dereferenceable(32) %0, ptr noundef nonnull align 8 dereferenceable(24) %1) unnamed_addr #1 align 2 {
  %3 = alloca ptr, align 8
  %4 = alloca ptr, align 8
  store ptr %0, ptr %3, align 8
  store ptr %1, ptr %4, align 8
  %5 = load ptr, ptr %3, align 8
  %6 = getelementptr inbounds i8, ptr %5, i64 0
  call void @llvm.memset.p0.i64(ptr align 8 %6, i8 0, i64 24, i1 false)
  call void @_ZNSt14_Function_baseC2Ev(ptr noundef nonnull align 8 dereferenceable(24) %5) #2
  %7 = getelementptr inbounds nuw %"class.std::function.298", ptr %5, i32 0, i32 1
  store ptr null, ptr %7, align 8
  %8 = load ptr, ptr %4, align 8
  %9 = call noundef zeroext i1 @"_ZNSt14_Function_base13_Base_managerIZN4llvm15OpenMPIRBuilder13createSectionERKNS2_19LocationDescriptionENS1_12function_refIFvNS1_13IRBuilderBase11InsertPointES8_EEESt8functionIFvS8_EEE3$_0E21_M_not_empty_functionISE_EEbRKT_"(ptr noundef nonnull align 8 dereferenceable(24) %8) #2
  br i1 %9, label %10, label %15

10:                                               ; preds = %2
  %11 = getelementptr inbounds nuw %"class.std::_Function_base", ptr %5, i32 0, i32 0
  %12 = load ptr, ptr %4, align 8
  call void @"_ZNSt14_Function_base13_Base_managerIZN4llvm15OpenMPIRBuilder13createSectionERKNS2_19LocationDescriptionENS1_12function_refIFvNS1_13IRBuilderBase11InsertPointES8_EEESt8functionIFvS8_EEE3$_0E15_M_init_functorIRSE_EEvRSt9_Any_dataOT_"(ptr noundef nonnull align 8 dereferenceable(16) %11, ptr noundef nonnull align 8 dereferenceable(24) %12)
  %13 = getelementptr inbounds nuw %"class.std::function.298", ptr %5, i32 0, i32 1
  store ptr @"_ZNSt17_Function_handlerIFvN4llvm13IRBuilderBase11InsertPointEEZNS0_15OpenMPIRBuilder13createSectionERKNS4_19LocationDescriptionENS0_12function_refIFvS2_S2_EEESt8functionIS3_EE3$_0E9_M_invokeERKSt9_Any_dataOS2_", ptr %13, align 8
  %14 = getelementptr inbounds nuw %"class.std::_Function_base", ptr %5, i32 0, i32 1
  store ptr @"_ZNSt17_Function_handlerIFvN4llvm13IRBuilderBase11InsertPointEEZNS0_15OpenMPIRBuilder13createSectionERKNS4_19LocationDescriptionENS0_12function_refIFvS2_S2_EEESt8functionIS3_EE3$_0E10_M_managerERSt9_Any_dataRKSF_St18_Manager_operation", ptr %14, align 8
  br label %15

15:                                               ; preds = %10, %2
  ret void
}

; Function Attrs: mustprogress nounwind uwtable
define dso_local void @_ZN4llvm15OpenMPIRBuilder13createSectionERKNS0_19LocationDescriptionENS_12function_refIFvNS_13IRBuilderBase11InsertPointES6_EEESt8functionIFvS6_EE(ptr dead_on_unwind noalias writable sret(%"class.llvm::IRBuilderBase::InsertPoint") align 8 %0, ptr noundef nonnull align 8 dereferenceable(3104) %1, ptr noundef nonnull align 8 dereferenceable(32) %2, ptr %3, i64 %4, ptr noundef %5) #1 align 2 {
  %7 = alloca %"class.llvm::function_ref.302", align 8
  %8 = alloca ptr, align 8
  %9 = alloca ptr, align 8
  %10 = alloca ptr, align 8
  %11 = alloca %class.anon.321, align 8
  %12 = alloca i32, align 4
  %13 = alloca %"class.llvm::function_ref.302", align 8
  %14 = alloca %"class.std::function.298", align 8
  %15 = getelementptr inbounds nuw { ptr, i64 }, ptr %7, i32 0, i32 0
  store ptr %3, ptr %15, align 8
  %16 = getelementptr inbounds nuw { ptr, i64 }, ptr %7, i32 0, i32 1
  store i64 %4, ptr %16, align 8
  store ptr %1, ptr %8, align 8
  store ptr %2, ptr %9, align 8
  store ptr %5, ptr %10, align 8
  %17 = load ptr, ptr %8, align 8
  %18 = load ptr, ptr %9, align 8
  %19 = call noundef zeroext i1 @_ZN4llvm15OpenMPIRBuilder16updateToLocationERKNS0_19LocationDescriptionE(ptr noundef nonnull align 8 dereferenceable(3104) %17, ptr noundef nonnull align 8 dereferenceable(32) %18)
  br i1 %19, label %23, label %20

20:                                               ; preds = %6
  %21 = load ptr, ptr %9, align 8
  %22 = getelementptr inbounds nuw %"struct.llvm::OpenMPIRBuilder::LocationDescription", ptr %21, i32 0, i32 0
  call void @llvm.memcpy.p0.p0.i64(ptr align 8 %0, ptr align 8 %22, i64 24, i1 false)
  br label %29

23:                                               ; preds = %6
  %24 = getelementptr inbounds nuw %class.anon.321, ptr %11, i32 0, i32 0
  store ptr %5, ptr %24, align 8
  %25 = getelementptr inbounds nuw %class.anon.321, ptr %11, i32 0, i32 1
  store ptr %17, ptr %25, align 8
  %26 = getelementptr inbounds nuw %class.anon.321, ptr %11, i32 0, i32 2
  %27 = load ptr, ptr %9, align 8
  store ptr %27, ptr %26, align 8
  store i32 64, ptr %12, align 4
  %28 = load i32, ptr %12, align 4
  call void @llvm.memcpy.p0.p0.i64(ptr align 8 %13, ptr align 8 %7, i64 16, i1 false)
  call void @"_ZNSt8functionIFvN4llvm13IRBuilderBase11InsertPointEEEC2IRZNS0_15OpenMPIRBuilder13createSectionERKNS6_19LocationDescriptionENS0_12function_refIFvS2_S2_EEES4_E3$_0vEEOT_"(ptr noundef nonnull align 8 dereferenceable(32) %14, ptr noundef nonnull align 8 dereferenceable(24) %11)
  call void @_ZN4llvm15OpenMPIRBuilder20EmitOMPInlinedRegionENS_3omp9DirectiveEPNS_11InstructionES4_NS_12function_refIFvNS_13IRBuilderBase11InsertPointES7_EEESt8functionIFvS7_EEbbb(ptr dead_on_unwind writable sret(%"class.llvm::IRBuilderBase::InsertPoint") align 8 %0, ptr noundef nonnull align 8 dereferenceable(3104) %17, i32 noundef %28, ptr noundef null, ptr noundef null, ptr noundef byval(%"class.llvm::function_ref.302") align 8 %13, ptr noundef %14, i1 noundef zeroext false, i1 noundef zeroext true, i1 noundef zeroext true)
  call void @_ZNSt8functionIFvN4llvm13IRBuilderBase11InsertPointEEED2Ev(ptr noundef nonnull align 8 dereferenceable(32) %14) #2
  br label %29

29:                                               ; preds = %23, %20
  ret void
}