; Function Attrs: mustprogress nounwind uwtable
define dso_local void @_ZN4llvm15OpenMPIRBuilder13createSectionERKNS0_19LocationDescriptionENS_12function_refIFvNS_13IRBuilderBase11InsertPointES6_EEESt8functionIFvS6_EE(ptr dead_on_unwind noalias writable writeonly sret(%"class.llvm::IRBuilderBase::InsertPoint") align 8 captures(none) initializes((0, 24)) %0, ptr noundef nonnull align 8 dereferenceable(3104) %1, ptr noundef nonnull align 8 dereferenceable(32) %2, ptr %3, i64 %4, ptr noundef %5) local_unnamed_addr #0 align 2 {
  %7 = alloca %"class.llvm::function_ref.302", align 8
  %8 = alloca %"class.std::function.298", align 8
  %9 = tail call noundef zeroext i1 @_ZN4llvm15OpenMPIRBuilder16updateToLocationERKNS0_19LocationDescriptionE(ptr noundef nonnull align 8 dereferenceable(3104) %1, ptr noundef nonnull align 8 dereferenceable(32) %2)
  br i1 %9, label %11, label %10

10:                                               ; preds = %6
  tail call void @llvm.memcpy.p0.p0.i64(ptr noundef nonnull align 8 dereferenceable(24) %0, ptr noundef nonnull align 8 dereferenceable(24) %2, i64 24, i1 false)
  br label %_ZNSt8functionIFvN4llvm13IRBuilderBase11InsertPointEEED2Ev.exit

11:                                               ; preds = %6
  store ptr %3, ptr %7, align 8
  %.sroa.2.0..sroa_idx = getelementptr inbounds nuw i8, ptr %7, i64 8
  store i64 %4, ptr %.sroa.2.0..sroa_idx, align 8
  %12 = getelementptr inbounds nuw i8, ptr %8, i64 16
  %13 = getelementptr inbounds nuw i8, ptr %8, i64 24
  %14 = getelementptr inbounds nuw i8, ptr %8, i64 8
  store i64 0, ptr %14, align 8
  %15 = tail call noalias noundef nonnull dereferenceable(24) ptr @_Znwm(i64 noundef 24) #27
  store ptr %5, ptr %15, align 16
  %.sroa.2.0..sroa_idx4 = getelementptr inbounds nuw i8, ptr %15, i64 8
  store ptr %1, ptr %.sroa.2.0..sroa_idx4, align 8
  %.sroa.3.0..sroa_idx = getelementptr inbounds nuw i8, ptr %15, i64 16
  store ptr %2, ptr %.sroa.3.0..sroa_idx, align 16
  store ptr %15, ptr %8, align 8
  store ptr @"_ZNSt17_Function_handlerIFvN4llvm13IRBuilderBase11InsertPointEEZNS0_15OpenMPIRBuilder13createSectionERKNS4_19LocationDescriptionENS0_12function_refIFvS2_S2_EEESt8functionIS3_EE3$_0E9_M_invokeERKSt9_Any_dataOS2_", ptr %13, align 8
  store ptr @"_ZNSt17_Function_handlerIFvN4llvm13IRBuilderBase11InsertPointEEZNS0_15OpenMPIRBuilder13createSectionERKNS4_19LocationDescriptionENS0_12function_refIFvS2_S2_EEESt8functionIS3_EE3$_0E10_M_managerERSt9_Any_dataRKSF_St18_Manager_operation", ptr %12, align 8
  call void @_ZN4llvm15OpenMPIRBuilder20EmitOMPInlinedRegionENS_3omp9DirectiveEPNS_11InstructionES4_NS_12function_refIFvNS_13IRBuilderBase11InsertPointES7_EEESt8functionIFvS7_EEbbb(ptr dead_on_unwind writable sret(%"class.llvm::IRBuilderBase::InsertPoint") align 8 %0, ptr noundef nonnull align 8 dereferenceable(3104) %1, i32 noundef 64, ptr noundef null, ptr noundef null, ptr noundef nonnull byval(%"class.llvm::function_ref.302") align 8 %7, ptr noundef nonnull %8, i1 noundef zeroext false, i1 noundef zeroext true, i1 noundef zeroext true)
  %16 = load ptr, ptr %12, align 8
  %.not.i.i = icmp eq ptr %16, null
  br i1 %.not.i.i, label %_ZNSt8functionIFvN4llvm13IRBuilderBase11InsertPointEEED2Ev.exit, label %17

17:                                               ; preds = %11
  %18 = call noundef zeroext i1 %16(ptr noundef nonnull align 8 dereferenceable(32) %8, ptr noundef nonnull align 8 dereferenceable(32) %8, i32 noundef 3) #26
  br label %_ZNSt8functionIFvN4llvm13IRBuilderBase11InsertPointEEED2Ev.exit

_ZNSt8functionIFvN4llvm13IRBuilderBase11InsertPointEEED2Ev.exit: ; preds = %17, %11, %10
  ret void
}